; ModuleID = '19/1934.c'
source_filename = "19/1934.c"
target datalayout = "e-m:e-p270:32:32-p271:32:32-p272:64:64-i64:64-f80:128-n8:16:32:64-S128"
target triple = "x86_64-pc-linux-gnu"

@.str = private unnamed_addr constant [2 x i8] c" \00", align 1
@.str.1 = private unnamed_addr constant [3 x i8] c"%s\00", align 1
@.str.2 = private unnamed_addr constant [2 x i8] c"\0A\00", align 1

; Function Attrs: noinline nounwind uwtable
define dso_local i32 @main() #0 {
  %1 = alloca i32, align 4
  %2 = alloca [101 x i8], align 16
  %3 = alloca [101 x i8], align 16
  %4 = alloca [101 x i8], align 16
  %5 = alloca [100 x i8*], align 16
  %6 = alloca i32, align 4
  %7 = alloca i32, align 4
  store i32 0, i32* %1, align 4
  store i32 0, i32* %7, align 4
  %8 = getelementptr inbounds [101 x i8], [101 x i8]* %2, i64 0, i64 0
  %9 = call i32 (i8*, ...) bitcast (i32 (...)* @gets to i32 (i8*, ...)*)(i8* %8)
  %10 = getelementptr inbounds [101 x i8], [101 x i8]* %3, i64 0, i64 0
  %11 = call i32 (i8*, ...) bitcast (i32 (...)* @gets to i32 (i8*, ...)*)(i8* %10)
  %12 = getelementptr inbounds [101 x i8], [101 x i8]* %4, i64 0, i64 0
  %13 = call i32 (i8*, ...) bitcast (i32 (...)* @gets to i32 (i8*, ...)*)(i8* %12)
  %14 = getelementptr inbounds [101 x i8], [101 x i8]* %2, i64 0, i64 0
  %15 = load i32, i32* %7, align 4
  %16 = add nsw i32 %15, 1
  store i32 %16, i32* %7, align 4
  %17 = sext i32 %15 to i64
  %18 = getelementptr inbounds [100 x i8*], [100 x i8*]* %5, i64 0, i64 %17
  store i8* %14, i8** %18, align 8
  store i32 0, i32* %6, align 4
  br label %19

19:                                               ; preds = %46, %0
  %20 = load i32, i32* %6, align 4
  %21 = sext i32 %20 to i64
  %22 = getelementptr inbounds [101 x i8], [101 x i8]* %2, i64 0, i64 %21
  %23 = load i8, i8* %22, align 1
  %24 = icmp ne i8 %23, 0
  br i1 %24, label %25, label %49

25:                                               ; preds = %19
  %26 = load i32, i32* %6, align 4
  %27 = sext i32 %26 to i64
  %28 = getelementptr inbounds [101 x i8], [101 x i8]* %2, i64 0, i64 %27
  %29 = load i8, i8* %28, align 1
  %30 = sext i8 %29 to i32
  %31 = icmp eq i32 %30, 32
  br i1 %31, label %32, label %45

32:                                               ; preds = %25
  %33 = load i32, i32* %6, align 4
  %34 = sext i32 %33 to i64
  %35 = getelementptr inbounds [101 x i8], [101 x i8]* %2, i64 0, i64 %34
  store i8 0, i8* %35, align 1
  %36 = getelementptr inbounds [101 x i8], [101 x i8]* %2, i64 0, i64 0
  %37 = load i32, i32* %6, align 4
  %38 = sext i32 %37 to i64
  %39 = getelementptr inbounds i8, i8* %36, i64 %38
  %40 = getelementptr inbounds i8, i8* %39, i64 1
  %41 = load i32, i32* %7, align 4
  %42 = add nsw i32 %41, 1
  store i32 %42, i32* %7, align 4
  %43 = sext i32 %41 to i64
  %44 = getelementptr inbounds [100 x i8*], [100 x i8*]* %5, i64 0, i64 %43
  store i8* %40, i8** %44, align 8
  br label %45

45:                                               ; preds = %32, %25
  br label %46

46:                                               ; preds = %45
  %47 = load i32, i32* %6, align 4
  %48 = add nsw i32 %47, 1
  store i32 %48, i32* %6, align 4
  br label %19

49:                                               ; preds = %19
  store i32 0, i32* %6, align 4
  br label %50

50:                                               ; preds = %77, %49
  %51 = load i32, i32* %6, align 4
  %52 = load i32, i32* %7, align 4
  %53 = icmp slt i32 %51, %52
  br i1 %53, label %54, label %80

54:                                               ; preds = %50
  %55 = load i32, i32* %6, align 4
  %56 = icmp sgt i32 %55, 0
  br i1 %56, label %57, label %59

57:                                               ; preds = %54
  %58 = call i32 (i8*, ...) @printf(i8* getelementptr inbounds ([2 x i8], [2 x i8]* @.str, i64 0, i64 0))
  br label %59

59:                                               ; preds = %57, %54
  %60 = load i32, i32* %6, align 4
  %61 = sext i32 %60 to i64
  %62 = getelementptr inbounds [100 x i8*], [100 x i8*]* %5, i64 0, i64 %61
  %63 = load i8*, i8** %62, align 8
  %64 = getelementptr inbounds [101 x i8], [101 x i8]* %3, i64 0, i64 0
  %65 = call i32 @strcmp(i8* %63, i8* %64) #3
  %66 = icmp eq i32 %65, 0
  br i1 %66, label %67, label %70

67:                                               ; preds = %59
  %68 = getelementptr inbounds [101 x i8], [101 x i8]* %4, i64 0, i64 0
  %69 = call i32 (i8*, ...) @printf(i8* getelementptr inbounds ([3 x i8], [3 x i8]* @.str.1, i64 0, i64 0), i8* %68)
  br label %76

70:                                               ; preds = %59
  %71 = load i32, i32* %6, align 4
  %72 = sext i32 %71 to i64
  %73 = getelementptr inbounds [100 x i8*], [100 x i8*]* %5, i64 0, i64 %72
  %74 = load i8*, i8** %73, align 8
  %75 = call i32 (i8*, ...) @printf(i8* %74)
  br label %76

76:                                               ; preds = %70, %67
  br label %77

77:                                               ; preds = %76
  %78 = load i32, i32* %6, align 4
  %79 = add nsw i32 %78, 1
  store i32 %79, i32* %6, align 4
  br label %50

80:                                               ; preds = %50
  %81 = call i32 (i8*, ...) @printf(i8* getelementptr inbounds ([2 x i8], [2 x i8]* @.str.2, i64 0, i64 0))
  ret i32 0
}

declare dso_local i32 @gets(...) #1

declare dso_local i32 @printf(i8*, ...) #1

; Function Attrs: nounwind readonly
declare dso_local i32 @strcmp(i8*, i8*) #2


!llvm.module.flags = !{!0}
!llvm.ident = !{!1}

!0 = !{i32 1, !"wchar_size", i32 4}
!1 = !{!"clang version 10.0.0-4ubuntu1 "}
